;/////////////////////////////////////////////////////////////////////////////////
;// Code Generator: BoostC Compiler - http://www.sourceboost.com
;// Version       : 8.01
;// License Type  : Pro License
;// Limitations   : PIC12,PIC16 max code size:Unlimited, max RAM banks:Unlimited
;/////////////////////////////////////////////////////////////////////////////////

	ORG 0x00000000
0000  2A10  	GOTO	_startup
	ORG 0x00000004
0004  00DF  	MOVWF Int1Context
0005  0E03  	SWAPF STATUS, W
0006  1283  	BCF STATUS, RP0
0007  00AE  	MOVWF Int1BContext
0008  0E0A  	SWAPF PCLATH, W
0009  00AF  	MOVWF Int1BContext+D'1'
000A  0E04  	SWAPF FSR, W
000B  00B0  	MOVWF Int1BContext+D'2'
000C  118A  	BCF PCLATH,3
000D  120A  	BCF PCLATH,4
000E  2A41  	GOTO	interrupt
	ORG 0x00000010
0010        delay_10us_00000
0010        ; { delay_10us ; function begin
0010        label1
0010  0000  	NOP
0011  0000  	NOP
0012  0000  	NOP
0013  0000  	NOP
0014  0000  	NOP
0015  0000  	NOP
0016  0000  	NOP
0017  0BC3  	DECFSZ delay_10us_00000_arg_del, F
0018  2810  	GOTO	label1
0019  0008  	RETURN
001A        ; } delay_10us function end

	ORG 0x0000001A
001A        delay_us_00000
001A        ; { delay_us ; function begin
001A  3003  	MOVLW 0x03
001B  07C3  	ADDWF delay_us_00000_arg_del, F
001C  0CC3  	RRF delay_us_00000_arg_del, F
001D  0CC3  	RRF delay_us_00000_arg_del, F
001E  307F  	MOVLW 0x7F
001F  05C3  	ANDWF delay_us_00000_arg_del, F
0020        label2
0020  0000  	NOP
0021  0BC3  	DECFSZ delay_us_00000_arg_del, F
0022  2820  	GOTO	label2
0023  0008  	RETURN
0024        ; } delay_us function end

	ORG 0x00000024
0024        oneWireTxB_00016
0024        ; { oneWireTxByte ; function begin
0024  3001  	MOVLW 0x01
0025  00C1  	MOVWF oneWireTxB_00016_1_cTemp
0026  01C2  	CLRF oneWireTxB_00016_2_i
0027        label3
0027  3008  	MOVLW 0x08
0028  0242  	SUBWF oneWireTxB_00016_2_i, W
0029  1803  	BTFSC STATUS,C
002A  0008  	RETURN
002B  1683  	BSF STATUS, RP0
002C  1105  	BCF gbl_trisio,2
002D  1283  	BCF STATUS, RP0
002E  1105  	BCF gbl_gpio,2
002F  0841  	MOVF oneWireTxB_00016_1_cTemp, W
0030  0540  	ANDWF oneWireTxB_00016_arg_cData, W
0031  1903  	BTFSC STATUS,Z
0032  2835  	GOTO	label4
0033  1683  	BSF STATUS, RP0
0034  1505  	BSF gbl_trisio,2
0035        label4
0035  3005  	MOVLW 0x05
0036  1283  	BCF STATUS, RP0
0037  00C3  	MOVWF delay_10us_00000_arg_del
0038  2010  	CALL delay_10us_00000
0039  1683  	BSF STATUS, RP0
003A  1505  	BSF gbl_trisio,2
003B  1003  	BCF STATUS,C
003C  1283  	BCF STATUS, RP0
003D  0DC1  	RLF oneWireTxB_00016_1_cTemp, F
003E  0AC2  	INCF oneWireTxB_00016_2_i, F
003F  2827  	GOTO	label3
0040        ; } oneWireTxByte function end

	ORG 0x00000040
0040        tm1637Stop_0001C
0040        ; { tm1637StopCondition ; function begin
0040  1683  	BSF STATUS, RP0
0041  1205  	BCF gbl_trisio,4
0042  1283  	BCF STATUS, RP0
0043  1205  	BCF gbl_gpio,4
0044  3064  	MOVLW 0x64
0045  00C3  	MOVWF delay_us_00000_arg_del
0046  201A  	CALL delay_us_00000
0047  1683  	BSF STATUS, RP0
0048  1685  	BSF gbl_trisio,5
0049  3064  	MOVLW 0x64
004A  1283  	BCF STATUS, RP0
004B  00C3  	MOVWF delay_us_00000_arg_del
004C  201A  	CALL delay_us_00000
004D  1683  	BSF STATUS, RP0
004E  1605  	BSF gbl_trisio,4
004F  3064  	MOVLW 0x64
0050  1283  	BCF STATUS, RP0
0051  00C3  	MOVWF delay_us_00000_arg_del
0052  201A  	CALL delay_us_00000
0053  0008  	RETURN
0054        ; } tm1637StopCondition function end

	ORG 0x00000054
0054        tm1637Star_0001A
0054        ; { tm1637StartCondition ; function begin
0054  1683  	BSF STATUS, RP0
0055  1205  	BCF gbl_trisio,4
0056  1283  	BCF STATUS, RP0
0057  1205  	BCF gbl_gpio,4
0058  3064  	MOVLW 0x64
0059  00C3  	MOVWF delay_us_00000_arg_del
005A  201A  	CALL delay_us_00000
005B  0008  	RETURN
005C        ; } tm1637StartCondition function end

	ORG 0x0000005C
005C        tm1637Byte_0001B
005C        ; { tm1637ByteWrite ; function begin
005C  01C1  	CLRF tm1637Byte_0001B_2_i
005D        label5
005D  3008  	MOVLW 0x08
005E  0241  	SUBWF tm1637Byte_0001B_2_i, W
005F  1803  	BTFSC STATUS,C
0060  2885  	GOTO	label8
0061  1683  	BSF STATUS, RP0
0062  1285  	BCF gbl_trisio,5
0063  1283  	BCF STATUS, RP0
0064  1285  	BCF gbl_gpio,5
0065  3064  	MOVLW 0x64
0066  00C3  	MOVWF delay_us_00000_arg_del
0067  201A  	CALL delay_us_00000
0068  3001  	MOVLW 0x01
0069  053F  	ANDWF tm1637Byte_0001B_arg_bWrite, W
006A  00C2  	MOVWF CompTempVar554
006B  0842  	MOVF CompTempVar554, W
006C  3C00  	SUBLW 0x00
006D  1803  	BTFSC STATUS,C
006E  2872  	GOTO	label6
006F  1683  	BSF STATUS, RP0
0070  1605  	BSF gbl_trisio,4
0071  2876  	GOTO	label7
0072        label6
0072  1683  	BSF STATUS, RP0
0073  1205  	BCF gbl_trisio,4
0074  1283  	BCF STATUS, RP0
0075  1205  	BCF gbl_gpio,4
0076        label7
0076  3064  	MOVLW 0x64
0077  1283  	BCF STATUS, RP0
0078  00C3  	MOVWF delay_us_00000_arg_del
0079  201A  	CALL delay_us_00000
007A  08BF  	MOVF tm1637Byte_0001B_arg_bWrite, F
007B  1003  	BCF STATUS,C
007C  0CBF  	RRF tm1637Byte_0001B_arg_bWrite, F
007D  1683  	BSF STATUS, RP0
007E  1685  	BSF gbl_trisio,5
007F  3064  	MOVLW 0x64
0080  1283  	BCF STATUS, RP0
0081  00C3  	MOVWF delay_us_00000_arg_del
0082  201A  	CALL delay_us_00000
0083  0AC1  	INCF tm1637Byte_0001B_2_i, F
0084  285D  	GOTO	label5
0085        label8
0085  1683  	BSF STATUS, RP0
0086  1285  	BCF gbl_trisio,5
0087  1283  	BCF STATUS, RP0
0088  1285  	BCF gbl_gpio,5
0089  1683  	BSF STATUS, RP0
008A  1605  	BSF gbl_trisio,4
008B  1283  	BCF STATUS, RP0
008C  1205  	BCF gbl_gpio,4
008D  3064  	MOVLW 0x64
008E  00C3  	MOVWF delay_us_00000_arg_del
008F  201A  	CALL delay_us_00000
0090  1683  	BSF STATUS, RP0
0091  1685  	BSF gbl_trisio,5
0092  3064  	MOVLW 0x64
0093  1283  	BCF STATUS, RP0
0094  00C3  	MOVWF delay_us_00000_arg_del
0095  201A  	CALL delay_us_00000
0096  01C0  	CLRF tm1637Byte_0001B_1_tm1637ack
0097  1A05  	BTFSC gbl_gpio,4
0098  0AC0  	INCF tm1637Byte_0001B_1_tm1637ack, F
0099  08C0  	MOVF tm1637Byte_0001B_1_tm1637ack, F
009A  1D03  	BTFSS STATUS,Z
009B  28A0  	GOTO	label9
009C  1683  	BSF STATUS, RP0
009D  1205  	BCF gbl_trisio,4
009E  1283  	BCF STATUS, RP0
009F  1205  	BCF gbl_gpio,4
00A0        label9
00A0  3064  	MOVLW 0x64
00A1  00C3  	MOVWF delay_us_00000_arg_del
00A2  201A  	CALL delay_us_00000
00A3  1683  	BSF STATUS, RP0
00A4  1285  	BCF gbl_trisio,5
00A5  1283  	BCF STATUS, RP0
00A6  1285  	BCF gbl_gpio,5
00A7  3064  	MOVLW 0x64
00A8  00C3  	MOVWF delay_us_00000_arg_del
00A9  201A  	CALL delay_us_00000
00AA  3001  	MOVLW 0x01
00AB  00C1  	MOVWF CompTempVarRet553
00AC  0008  	RETURN
00AD        ; } tm1637ByteWrite function end

	ORG 0x000000AD
00AD        oneWireTxB_00017
00AD        ; { oneWireTxBytes ; function begin
00AD  083E  	MOVF oneWireTxB_00017_arg_cData, W
00AE  00C0  	MOVWF oneWireTxB_00016_arg_cData
00AF  2024  	CALL oneWireTxB_00016
00B0  083F  	MOVF oneWireTxB_00017_arg_cData2, W
00B1  00C0  	MOVWF oneWireTxB_00016_arg_cData
00B2  2024  	CALL oneWireTxB_00016
00B3  0008  	RETURN
00B4        ; } oneWireTxBytes function end

	ORG 0x000000B4
00B4        oneWireRxB_00018
00B4        ; { oneWireRxByte ; function begin
00B4  1283  	BCF STATUS, RP0
00B5  01BE  	CLRF oneWireRxB_00018_1_cDataIn
00B6  01BF  	CLRF oneWireRxB_00018_2_i
00B7        label10
00B7  3008  	MOVLW 0x08
00B8  023F  	SUBWF oneWireRxB_00018_2_i, W
00B9  1803  	BTFSC STATUS,C
00BA  28CE  	GOTO	label11
00BB  1683  	BSF STATUS, RP0
00BC  1105  	BCF gbl_trisio,2
00BD  1283  	BCF STATUS, RP0
00BE  1105  	BCF gbl_gpio,2
00BF  1683  	BSF STATUS, RP0
00C0  1505  	BSF gbl_trisio,2
00C1  3006  	MOVLW 0x06
00C2  1283  	BCF STATUS, RP0
00C3  00C3  	MOVWF delay_us_00000_arg_del
00C4  201A  	CALL delay_us_00000
00C5  1003  	BCF STATUS,C
00C6  0CBE  	RRF oneWireRxB_00018_1_cDataIn, F
00C7  1905  	BTFSC gbl_gpio,2
00C8  17BE  	BSF oneWireRxB_00018_1_cDataIn,7
00C9  3006  	MOVLW 0x06
00CA  00C3  	MOVWF delay_10us_00000_arg_del
00CB  2010  	CALL delay_10us_00000
00CC  0ABF  	INCF oneWireRxB_00018_2_i, F
00CD  28B7  	GOTO	label10
00CE        label11
00CE  083E  	MOVF oneWireRxB_00018_1_cDataIn, W
00CF  00BF  	MOVWF CompTempVarRet548
00D0  0008  	RETURN
00D1        ; } oneWireRxByte function end

	ORG 0x000000D1
00D1        __mul_16s__0000F
00D1        ; { __mul_16s_16s__16 ; function begin
00D1  01CD  	CLRF __mul_16s__0000F_1_i
00D2  01D0  	CLRF CompTempVarRet386
00D3  01D1  	CLRF CompTempVarRet386+D'1'
00D4  0849  	MOVF __mul_16s__0000F_arg_a, W
00D5  00CE  	MOVWF __mul_16s__0000F_1_t
00D6  084A  	MOVF __mul_16s__0000F_arg_a+D'1', W
00D7  00CF  	MOVWF __mul_16s__0000F_1_t+D'1'
00D8  1FCC  	BTFSS __mul_16s__0000F_arg_b+D'1',7
00D9  28E0  	GOTO	label12
00DA  17CD  	BSF __mul_16s__0000F_1_i,7
00DB  09CB  	COMF __mul_16s__0000F_arg_b, F
00DC  09CC  	COMF __mul_16s__0000F_arg_b+D'1', F
00DD  0ACB  	INCF __mul_16s__0000F_arg_b, F
00DE  1903  	BTFSC gbl_status,2
00DF  0ACC  	INCF __mul_16s__0000F_arg_b+D'1', F
00E0        label12
00E0  1A4D  	BTFSC __mul_16s__0000F_1_i,4
00E1  28F2  	GOTO	label14
00E2  1C4B  	BTFSS __mul_16s__0000F_arg_b,0
00E3  28EA  	GOTO	label13
00E4  084E  	MOVF __mul_16s__0000F_1_t, W
00E5  07D0  	ADDWF CompTempVarRet386, F
00E6  084F  	MOVF __mul_16s__0000F_1_t+D'1', W
00E7  1803  	BTFSC gbl_status,0
00E8  0F4F  	INCFSZ __mul_16s__0000F_1_t+D'1', W
00E9  07D1  	ADDWF CompTempVarRet386+D'1', F
00EA        label13
00EA  1003  	BCF gbl_status,0
00EB  0CCC  	RRF __mul_16s__0000F_arg_b+D'1', F
00EC  0CCB  	RRF __mul_16s__0000F_arg_b, F
00ED  1003  	BCF gbl_status,0
00EE  0DCE  	RLF __mul_16s__0000F_1_t, F
00EF  0DCF  	RLF __mul_16s__0000F_1_t+D'1', F
00F0  0ACD  	INCF __mul_16s__0000F_1_i, F
00F1  28E0  	GOTO	label12
00F2        label14
00F2  1FCD  	BTFSS __mul_16s__0000F_1_i,7
00F3  0008  	RETURN
00F4  09D0  	COMF CompTempVarRet386, F
00F5  09D1  	COMF CompTempVarRet386+D'1', F
00F6  0AD0  	INCF CompTempVarRet386, F
00F7  1903  	BTFSC gbl_status,2
00F8  0AD1  	INCF CompTempVarRet386+D'1', F
00F9  0008  	RETURN
00FA        ; } __mul_16s_16s__16 function end

	ORG 0x000000FA
00FA        tm1637Upda_00019
00FA        ; { tm1637UpdateDisplay ; function begin
00FA  2054  	CALL tm1637Star_0001A
00FB  083B  	MOVF gbl_tm1637ByteSetData, W
00FC  00BF  	MOVWF tm1637Byte_0001B_arg_bWrite
00FD  205C  	CALL tm1637Byte_0001B
00FE  2040  	CALL tm1637Stop_0001C
00FF  2054  	CALL tm1637Star_0001A
0100  083C  	MOVF gbl_tm1637ByteSetAddr, W
0101  00BF  	MOVWF tm1637Byte_0001B_arg_bWrite
0102  205C  	CALL tm1637Byte_0001B
0103  01BE  	CLRF tm1637Upda_00019_2_i
0104        label15
0104  0838  	MOVF gbl_tm1637MaxDigits, W
0105  023E  	SUBWF tm1637Upda_00019_2_i, W
0106  1803  	BTFSC STATUS,C
0107  2911  	GOTO	label16
0108  302A  	MOVLW LOW(gbl_tm1637Data+D'0')
0109  0084  	MOVWF FSR
010A  083E  	MOVF tm1637Upda_00019_2_i, W
010B  0784  	ADDWF FSR, F
010C  0800  	MOVF INDF, W
010D  00BF  	MOVWF tm1637Byte_0001B_arg_bWrite
010E  205C  	CALL tm1637Byte_0001B
010F  0ABE  	INCF tm1637Upda_00019_2_i, F
0110  2904  	GOTO	label15
0111        label16
0111  2040  	CALL tm1637Stop_0001C
0112  2054  	CALL tm1637Star_0001A
0113  083A  	MOVF gbl_tm1637Brightness, W
0114  073D  	ADDWF gbl_tm1637ByteSetOn, W
0115  00BF  	MOVWF tm1637Byte_0001B_arg_bWrite
0116  205C  	CALL tm1637Byte_0001B
0117  2040  	CALL tm1637Stop_0001C
0118  0008  	RETURN
0119        ; } tm1637UpdateDisplay function end

	ORG 0x00000119
0119        startTemp_00000
0119        ; { startTemp ; function begin
0119  30CC  	MOVLW 0xCC
011A  1283  	BCF STATUS, RP0
011B  00BE  	MOVWF oneWireTxB_00017_arg_cData
011C  3044  	MOVLW 0x44
011D  00BF  	MOVWF oneWireTxB_00017_arg_cData2
011E  20AD  	CALL oneWireTxB_00017
011F  0008  	RETURN
0120        ; } startTemp function end

	ORG 0x00000120
0120        readTemp_00000
0120        ; { readTemp ; function begin
0120  30CC  	MOVLW 0xCC
0121  1283  	BCF STATUS, RP0
0122  00BE  	MOVWF oneWireTxB_00017_arg_cData
0123  30BE  	MOVLW 0xBE
0124  00BF  	MOVWF oneWireTxB_00017_arg_cData2
0125  20AD  	CALL oneWireTxB_00017
0126  20B4  	CALL oneWireRxB_00018
0127  083F  	MOVF CompTempVarRet548, W
0128  00B2  	MOVWF gbl_cTempL
0129  20B4  	CALL oneWireRxB_00018
012A  083F  	MOVF CompTempVarRet548, W
012B  00B1  	MOVWF gbl_cTempH
012C  0008  	RETURN
012D        ; } readTemp function end

	ORG 0x0000012D
012D        oneWireBus_00015
012D        ; { oneWireBusReset ; function begin
012D  1683  	BSF STATUS, RP0
012E  1505  	BSF gbl_trisio,2
012F  1283  	BCF STATUS, RP0
0130  01BE  	CLRF oneWireBus_00015_1_isPresent
0131  1105  	BCF gbl_gpio,2
0132  1683  	BSF STATUS, RP0
0133  1105  	BCF gbl_trisio,2
0134  3032  	MOVLW 0x32
0135  1283  	BCF STATUS, RP0
0136  00C3  	MOVWF delay_10us_00000_arg_del
0137  2010  	CALL delay_10us_00000
0138  1683  	BSF STATUS, RP0
0139  1505  	BSF gbl_trisio,2
013A  3007  	MOVLW 0x07
013B  1283  	BCF STATUS, RP0
013C  00C3  	MOVWF delay_10us_00000_arg_del
013D  2010  	CALL delay_10us_00000
013E  1905  	BTFSC gbl_gpio,2
013F  01B4  	CLRF gbl_oneWireIsPresent
0140  3032  	MOVLW 0x32
0141  00C3  	MOVWF delay_10us_00000_arg_del
0142  2010  	CALL delay_10us_00000
0143  0008  	RETURN
0144        ; } oneWireBusReset function end

	ORG 0x00000144
0144        initialise_00000
0144        ; { initialise ; function begin
0144  1283  	BCF STATUS, RP0
0145  0185  	CLRF gbl_gpio
0146  3034  	MOVLW 0x34
0147  1683  	BSF STATUS, RP0
0148  0085  	MOVWF gbl_trisio
0149  019F  	CLRF gbl_ansel
014A  3007  	MOVLW 0x07
014B  1283  	BCF STATUS, RP0
014C  0099  	MOVWF gbl_cmcon
014D  1683  	BSF STATUS, RP0
014E  0181  	CLRF gbl_option_reg
014F  1781  	BSF gbl_option_reg,7
0150  1283  	BCF STATUS, RP0
0151  0190  	CLRF gbl_t1con
0152  1690  	BSF gbl_t1con,5
0153  1510  	BSF gbl_t1con,2
0154  1410  	BSF gbl_t1con,0
0155  1683  	BSF STATUS, RP0
0156  140C  	BSF gbl_pie1,0
0157  1283  	BCF STATUS, RP0
0158  100C  	BCF gbl_pir1,0
0159  01B7  	CLRF gbl_cTask
015A  178B  	BSF gbl_intcon,7
015B  170B  	BSF gbl_intcon,6
015C  0008  	RETURN
015D        ; } initialise function end

	ORG 0x0000015D
015D        convertTem_0001D
015D        ; { convertTemp ; function begin
015D  1283  	BCF STATUS, RP0
015E  01BE  	CLRF convertTem_0001D_1_iTemp
015F  0831  	MOVF gbl_cTempH, W
0160  00BF  	MOVWF convertTem_0001D_1_iTemp+D'1'
0161  0832  	MOVF gbl_cTempL, W
0162  04BE  	IORWF convertTem_0001D_1_iTemp, F
0163  01C0  	CLRF convertTem_0001D_1_isMinus
0164  1BBF  	BTFSC convertTem_0001D_1_iTemp+D'1',7
0165  0AC0  	INCF convertTem_0001D_1_isMinus, F
0166  08C0  	MOVF convertTem_0001D_1_isMinus, F
0167  1903  	BTFSC STATUS,Z
0168  296E  	GOTO	label17
0169  09BE  	COMF convertTem_0001D_1_iTemp, F
016A  09BF  	COMF convertTem_0001D_1_iTemp+D'1', F
016B  0ABE  	INCF convertTem_0001D_1_iTemp, F
016C  1903  	BTFSC STATUS,Z
016D  0ABF  	INCF convertTem_0001D_1_iTemp+D'1', F
016E        label17
016E  3006  	MOVLW 0x06
016F  00C9  	MOVWF __mul_16s__0000F_arg_a
0170  01CA  	CLRF __mul_16s__0000F_arg_a+D'1'
0171  083E  	MOVF convertTem_0001D_1_iTemp, W
0172  00CB  	MOVWF __mul_16s__0000F_arg_b
0173  083F  	MOVF convertTem_0001D_1_iTemp+D'1', W
0174  00CC  	MOVWF __mul_16s__0000F_arg_b+D'1'
0175  20D1  	CALL __mul_16s__0000F
0176  0850  	MOVF CompTempVarRet386, W
0177  00C1  	MOVWF convertTem_0001D_1_iValue
0178  0851  	MOVF CompTempVarRet386+D'1', W
0179  00C4  	MOVWF CompTempVar564
017A  083E  	MOVF convertTem_0001D_1_iTemp, W
017B  00C3  	MOVWF CompTempVar561
017C  083F  	MOVF convertTem_0001D_1_iTemp+D'1', W
017D  00C2  	MOVWF convertTem_0001D_1_iValue+D'1'
017E  0D3F  	RLF convertTem_0001D_1_iTemp+D'1', W
017F  0CC2  	RRF convertTem_0001D_1_iValue+D'1', F
0180  0CC3  	RRF CompTempVar561, F
0181  0D3F  	RLF convertTem_0001D_1_iTemp+D'1', W
0182  0CC2  	RRF convertTem_0001D_1_iValue+D'1', F
0183  0CC3  	RRF CompTempVar561, F
0184  0843  	MOVF CompTempVar561, W
0185  07C1  	ADDWF convertTem_0001D_1_iValue, F
0186  0844  	MOVF CompTempVar564, W
0187  1803  	BTFSC STATUS,C
0188  0AC2  	INCF convertTem_0001D_1_iValue+D'1', F
0189  07C2  	ADDWF convertTem_0001D_1_iValue+D'1', F
018A  3064  	MOVLW 0x64
018B  02C1  	SUBWF convertTem_0001D_1_iValue, F
018C  1C03  	BTFSS STATUS,C
018D  03C2  	DECF convertTem_0001D_1_iValue+D'1', F
018E  01C5  	CLRF convertTem_0001D_1_cDig3
018F  01C6  	CLRF convertTem_0001D_1_cDig2
0190  01C7  	CLRF convertTem_0001D_1_cDig1
0191  01C8  	CLRF convertTem_0001D_1_cDig0
0192        label18
0192  3003  	MOVLW 0x03
0193  0242  	SUBWF convertTem_0001D_1_iValue+D'1', W
0194  1D03  	BTFSS STATUS,Z
0195  2998  	GOTO	label19
0196  30E8  	MOVLW 0xE8
0197  0241  	SUBWF convertTem_0001D_1_iValue, W
0198        label19
0198  1C03  	BTFSS STATUS,C
0199  29A4  	GOTO	label20
019A  1BC2  	BTFSC convertTem_0001D_1_iValue+D'1',7
019B  29A4  	GOTO	label20
019C  30E8  	MOVLW 0xE8
019D  02C1  	SUBWF convertTem_0001D_1_iValue, F
019E  3003  	MOVLW 0x03
019F  1C03  	BTFSS STATUS,C
01A0  3004  	MOVLW 0x04
01A1  02C2  	SUBWF convertTem_0001D_1_iValue+D'1', F
01A2  0AC5  	INCF convertTem_0001D_1_cDig3, F
01A3  2992  	GOTO	label18
01A4        label20
01A4  0842  	MOVF convertTem_0001D_1_iValue+D'1', W
01A5  3A80  	XORLW 0x80
01A6  00C9  	MOVWF CompTempVar573
01A7  3080  	MOVLW 0x80
01A8  0249  	SUBWF CompTempVar573, W
01A9  1D03  	BTFSS STATUS,Z
01AA  29AD  	GOTO	label21
01AB  3064  	MOVLW 0x64
01AC  0241  	SUBWF convertTem_0001D_1_iValue, W
01AD        label21
01AD  1C03  	BTFSS STATUS,C
01AE  29B6  	GOTO	label22
01AF  3064  	MOVLW 0x64
01B0  02C1  	SUBWF convertTem_0001D_1_iValue, F
01B1  08C2  	MOVF convertTem_0001D_1_iValue+D'1', F
01B2  1C03  	BTFSS STATUS,C
01B3  03C2  	DECF convertTem_0001D_1_iValue+D'1', F
01B4  0AC6  	INCF convertTem_0001D_1_cDig2, F
01B5  29A4  	GOTO	label20
01B6        label22
01B6  0842  	MOVF convertTem_0001D_1_iValue+D'1', W
01B7  3A80  	XORLW 0x80
01B8  00C9  	MOVWF CompTempVar576
01B9  3080  	MOVLW 0x80
01BA  0249  	SUBWF CompTempVar576, W
01BB  1D03  	BTFSS STATUS,Z
01BC  29BF  	GOTO	label23
01BD  300A  	MOVLW 0x0A
01BE  0241  	SUBWF convertTem_0001D_1_iValue, W
01BF        label23
01BF  1C03  	BTFSS STATUS,C
01C0  29C8  	GOTO	label24
01C1  300A  	MOVLW 0x0A
01C2  02C1  	SUBWF convertTem_0001D_1_iValue, F
01C3  08C2  	MOVF convertTem_0001D_1_iValue+D'1', F
01C4  1C03  	BTFSS STATUS,C
01C5  03C2  	DECF convertTem_0001D_1_iValue+D'1', F
01C6  0AC7  	INCF convertTem_0001D_1_cDig1, F
01C7  29B6  	GOTO	label22
01C8        label24
01C8  0841  	MOVF convertTem_0001D_1_iValue, W
01C9  00C8  	MOVWF convertTem_0001D_1_cDig0
01CA  3020  	MOVLW LOW(gbl_tm1637DisplayNumtoSeg+D'0')
01CB  0084  	MOVWF FSR
01CC  0845  	MOVF convertTem_0001D_1_cDig3, W
01CD  0784  	ADDWF FSR, F
01CE  0800  	MOVF INDF, W
01CF  00AA  	MOVWF gbl_tm1637Data
01D0  3020  	MOVLW LOW(gbl_tm1637DisplayNumtoSeg+D'0')
01D1  0084  	MOVWF FSR
01D2  0846  	MOVF convertTem_0001D_1_cDig2, W
01D3  0784  	ADDWF FSR, F
01D4  0839  	MOVF gbl_tm1637Dot, W
01D5  0700  	ADDWF INDF, W
01D6  00AB  	MOVWF gbl_tm1637Data+D'1'
01D7  3020  	MOVLW LOW(gbl_tm1637DisplayNumtoSeg+D'0')
01D8  0084  	MOVWF FSR
01D9  0847  	MOVF convertTem_0001D_1_cDig1, W
01DA  0784  	ADDWF FSR, F
01DB  0800  	MOVF INDF, W
01DC  00AC  	MOVWF gbl_tm1637Data+D'2'
01DD  3020  	MOVLW LOW(gbl_tm1637DisplayNumtoSeg+D'0')
01DE  0084  	MOVWF FSR
01DF  0848  	MOVF convertTem_0001D_1_cDig0, W
01E0  0784  	ADDWF FSR, F
01E1  0800  	MOVF INDF, W
01E2  00AD  	MOVWF gbl_tm1637Data+D'3'
01E3  08C5  	MOVF convertTem_0001D_1_cDig3, F
01E4  1903  	BTFSC STATUS,Z
01E5  01AA  	CLRF gbl_tm1637Data
01E6  08C0  	MOVF convertTem_0001D_1_isMinus, F
01E7  1903  	BTFSC STATUS,Z
01E8  0008  	RETURN
01E9  3003  	MOVLW 0x03
01EA  0242  	SUBWF convertTem_0001D_1_iValue+D'1', W
01EB  1D03  	BTFSS STATUS,Z
01EC  29EF  	GOTO	label25
01ED  30E8  	MOVLW 0xE8
01EE  0241  	SUBWF convertTem_0001D_1_iValue, W
01EF        label25
01EF  1C03  	BTFSS STATUS,C
01F0  29F9  	GOTO	label26
01F1  1BC2  	BTFSC convertTem_0001D_1_iValue+D'1',7
01F2  29F9  	GOTO	label26
01F3  082A  	MOVF gbl_tm1637Data, W
01F4  00AB  	MOVWF gbl_tm1637Data+D'1'
01F5  082B  	MOVF gbl_tm1637Data+D'1', W
01F6  00AC  	MOVWF gbl_tm1637Data+D'2'
01F7  082C  	MOVF gbl_tm1637Data+D'2', W
01F8  00AD  	MOVWF gbl_tm1637Data+D'3'
01F9        label26
01F9  3040  	MOVLW 0x40
01FA  00AA  	MOVWF gbl_tm1637Data
01FB  0008  	RETURN
01FC        ; } convertTemp function end

	ORG 0x000001FC
01FC        main
01FC        ; { main ; function begin
01FC  2144  	CALL initialise_00000
01FD  215D  	CALL convertTem_0001D
01FE  20FA  	CALL tm1637Upda_00019
01FF        label27
01FF  0837  	MOVF gbl_cTask, W
0200  3C00  	SUBLW 0x00
0201  1803  	BTFSC STATUS,C
0202  29FF  	GOTO	label27
0203  1DB7  	BTFSS gbl_cTask,3
0204  2A08  	GOTO	label28
0205  212D  	CALL oneWireBus_00015
0206  2119  	CALL startTemp_00000
0207  11B7  	BCF gbl_cTask,3
0208        label28
0208  1E37  	BTFSS gbl_cTask,4
0209  29FF  	GOTO	label27
020A  212D  	CALL oneWireBus_00015
020B  2120  	CALL readTemp_00000
020C  215D  	CALL convertTem_0001D
020D  20FA  	CALL tm1637Upda_00019
020E  1237  	BCF gbl_cTask,4
020F  29FF  	GOTO	label27
0210        ; } main function end

	ORG 0x00000210
0210        _startup
0210  1283  	BCF STATUS, RP0
0211  01B1  	CLRF gbl_cTempH
0212  01B2  	CLRF gbl_cTempL
0213  3002  	MOVLW 0x02
0214  00B3  	MOVWF gbl_iDecimalPosition
0215  01B4  	CLRF gbl_oneWireIsPresent
0216  01B5  	CLRF gbl_oneWireResetStage
0217  306E  	MOVLW 0x6E
0218  00B6  	MOVWF gbl_iTimer1Count
0219  01B7  	CLRF gbl_cTask
021A  3004  	MOVLW 0x04
021B  00B8  	MOVWF gbl_tm1637MaxDigits
021C  303F  	MOVLW 0x3F
021D  00A0  	MOVWF gbl_tm1637DisplayNumtoSeg
021E  3006  	MOVLW 0x06
021F  00A1  	MOVWF gbl_tm1637DisplayNumtoSeg+D'1'
0220  305B  	MOVLW 0x5B
0221  00A2  	MOVWF gbl_tm1637DisplayNumtoSeg+D'2'
0222  304F  	MOVLW 0x4F
0223  00A3  	MOVWF gbl_tm1637DisplayNumtoSeg+D'3'
0224  3066  	MOVLW 0x66
0225  00A4  	MOVWF gbl_tm1637DisplayNumtoSeg+D'4'
0226  306D  	MOVLW 0x6D
0227  00A5  	MOVWF gbl_tm1637DisplayNumtoSeg+D'5'
0228  307D  	MOVLW 0x7D
0229  00A6  	MOVWF gbl_tm1637DisplayNumtoSeg+D'6'
022A  3007  	MOVLW 0x07
022B  00A7  	MOVWF gbl_tm1637DisplayNumtoSeg+D'7'
022C  307F  	MOVLW 0x7F
022D  00A8  	MOVWF gbl_tm1637DisplayNumtoSeg+D'8'
022E  306F  	MOVLW 0x6F
022F  00A9  	MOVWF gbl_tm1637DisplayNumtoSeg+D'9'
0230  3080  	MOVLW 0x80
0231  00B9  	MOVWF gbl_tm1637Dot
0232  3007  	MOVLW 0x07
0233  00BA  	MOVWF gbl_tm1637Brightness
0234  3040  	MOVLW 0x40
0235  00BB  	MOVWF gbl_tm1637ByteSetData
0236  30C0  	MOVLW 0xC0
0237  00BC  	MOVWF gbl_tm1637ByteSetAddr
0238  3088  	MOVLW 0x88
0239  00BD  	MOVWF gbl_tm1637ByteSetOn
023A  01AA  	CLRF gbl_tm1637Data
023B  01AB  	CLRF gbl_tm1637Data+D'1'
023C  01AC  	CLRF gbl_tm1637Data+D'2'
023D  01AD  	CLRF gbl_tm1637Data+D'3'
023E  118A  	BCF PCLATH,3
023F  120A  	BCF PCLATH,4
0240  29FC  	GOTO	main
	ORG 0x00000241
0241        interrupt
0241        ; { interrupt ; function begin
0241  1283  	BCF STATUS, RP0
0242  1C0C  	BTFSS gbl_pir1,0
0243  2A54  	GOTO	label31
0244  1683  	BSF STATUS, RP0
0245  1C0C  	BTFSS gbl_pie1,0
0246  2A54  	GOTO	label31
0247  1283  	BCF STATUS, RP0
0248  0836  	MOVF gbl_iTimer1Count, W
0249  3A72  	XORLW 0x72
024A  1903  	BTFSC STATUS,Z
024B  15B7  	BSF gbl_cTask,3
024C  3075  	MOVLW 0x75
024D  0236  	SUBWF gbl_iTimer1Count, W
024E  1C03  	BTFSS STATUS,C
024F  2A52  	GOTO	label30
0250  01B6  	CLRF gbl_iTimer1Count
0251  1637  	BSF gbl_cTask,4
0252        label30
0252  0AB6  	INCF gbl_iTimer1Count, F
0253  100C  	BCF gbl_pir1,0
0254        label31
0254  1283  	BCF STATUS, RP0
0255  0E30  	SWAPF Int1BContext+D'2', W
0256  0084  	MOVWF FSR
0257  0E2F  	SWAPF Int1BContext+D'1', W
0258  008A  	MOVWF PCLATH
0259  0E2E  	SWAPF Int1BContext, W
025A  0083  	MOVWF STATUS
025B  0EDF  	SWAPF Int1Context, F
025C  0E5F  	SWAPF Int1Context, W
025D  0009  	RETFIE
025E        ; } interrupt function end

	ORG 0x00002007
2007  3FC4  	DW 0x3FC4
